; ModuleID = '44/920.c'
source_filename = "44/920.c"
target datalayout = "e-m:e-p270:32:32-p271:32:32-p272:64:64-i64:64-f80:128-n8:16:32:64-S128"
target triple = "x86_64-pc-linux-gnu"

@.str = private unnamed_addr constant [3 x i8] c"%d\00", align 1
@.str.1 = private unnamed_addr constant [4 x i8] c"%d\0A\00", align 1

; Function Attrs: noinline nounwind uwtable
define dso_local i32 @reverse(i32 %0) #0 {
  %2 = alloca i32, align 4
  %3 = alloca i32, align 4
  %4 = alloca [6 x i32], align 16
  %5 = alloca [6 x i32], align 16
  %6 = alloca [6 x i32], align 16
  %7 = alloca i32, align 4
  %8 = alloca i32, align 4
  %9 = alloca i32, align 4
  %10 = alloca i32, align 4
  store i32 %0, i32* %3, align 4
  store i32 0, i32* %10, align 4
  %11 = load i32, i32* %3, align 4
  %12 = icmp sgt i32 %11, 0
  br i1 %12, label %13, label %85

13:                                               ; preds = %1
  %14 = load i32, i32* %3, align 4
  %15 = sitofp i32 %14 to double
  %16 = call double @log10(double %15) #3
  %17 = fadd double %16, 1.000000e+00
  %18 = fptosi double %17 to i32
  store i32 %18, i32* %8, align 4
  %19 = load i32, i32* %3, align 4
  %20 = getelementptr inbounds [6 x i32], [6 x i32]* %5, i64 0, i64 0
  store i32 %19, i32* %20, align 16
  store i32 0, i32* %7, align 4
  br label %21

21:                                               ; preds = %52, %13
  %22 = load i32, i32* %7, align 4
  %23 = load i32, i32* %8, align 4
  %24 = icmp slt i32 %22, %23
  br i1 %24, label %25, label %55

25:                                               ; preds = %21
  %26 = load i32, i32* %8, align 4
  %27 = load i32, i32* %7, align 4
  %28 = sub nsw i32 %26, %27
  %29 = sub nsw i32 %28, 1
  %30 = sitofp i32 %29 to double
  %31 = call double @pow(double 1.000000e+01, double %30) #3
  %32 = fptosi double %31 to i32
  store i32 %32, i32* %9, align 4
  %33 = load i32, i32* %7, align 4
  %34 = sext i32 %33 to i64
  %35 = getelementptr inbounds [6 x i32], [6 x i32]* %5, i64 0, i64 %34
  %36 = load i32, i32* %35, align 4
  %37 = load i32, i32* %9, align 4
  %38 = sdiv i32 %36, %37
  %39 = load i32, i32* %7, align 4
  %40 = sext i32 %39 to i64
  %41 = getelementptr inbounds [6 x i32], [6 x i32]* %4, i64 0, i64 %40
  store i32 %38, i32* %41, align 4
  %42 = load i32, i32* %7, align 4
  %43 = sext i32 %42 to i64
  %44 = getelementptr inbounds [6 x i32], [6 x i32]* %5, i64 0, i64 %43
  %45 = load i32, i32* %44, align 4
  %46 = load i32, i32* %9, align 4
  %47 = srem i32 %45, %46
  %48 = load i32, i32* %7, align 4
  %49 = add nsw i32 %48, 1
  %50 = sext i32 %49 to i64
  %51 = getelementptr inbounds [6 x i32], [6 x i32]* %5, i64 0, i64 %50
  store i32 %47, i32* %51, align 4
  br label %52

52:                                               ; preds = %25
  %53 = load i32, i32* %7, align 4
  %54 = add nsw i32 %53, 1
  store i32 %54, i32* %7, align 4
  br label %21

55:                                               ; preds = %21
  store i32 0, i32* %7, align 4
  br label %56

56:                                               ; preds = %80, %55
  %57 = load i32, i32* %7, align 4
  %58 = load i32, i32* %8, align 4
  %59 = icmp slt i32 %57, %58
  br i1 %59, label %60, label %83

60:                                               ; preds = %56
  %61 = load i32, i32* %7, align 4
  %62 = sext i32 %61 to i64
  %63 = getelementptr inbounds [6 x i32], [6 x i32]* %4, i64 0, i64 %62
  %64 = load i32, i32* %63, align 4
  %65 = sitofp i32 %64 to double
  %66 = load i32, i32* %7, align 4
  %67 = sitofp i32 %66 to double
  %68 = call double @pow(double 1.000000e+01, double %67) #3
  %69 = fmul double %65, %68
  %70 = fptosi double %69 to i32
  %71 = load i32, i32* %7, align 4
  %72 = sext i32 %71 to i64
  %73 = getelementptr inbounds [6 x i32], [6 x i32]* %6, i64 0, i64 %72
  store i32 %70, i32* %73, align 4
  %74 = load i32, i32* %10, align 4
  %75 = load i32, i32* %7, align 4
  %76 = sext i32 %75 to i64
  %77 = getelementptr inbounds [6 x i32], [6 x i32]* %6, i64 0, i64 %76
  %78 = load i32, i32* %77, align 4
  %79 = add nsw i32 %74, %78
  store i32 %79, i32* %10, align 4
  br label %80

80:                                               ; preds = %60
  %81 = load i32, i32* %7, align 4
  %82 = add nsw i32 %81, 1
  store i32 %82, i32* %7, align 4
  br label %56

83:                                               ; preds = %56
  %84 = load i32, i32* %10, align 4
  store i32 %84, i32* %2, align 4
  br label %170

85:                                               ; preds = %1
  %86 = load i32, i32* %3, align 4
  %87 = icmp slt i32 %86, 0
  br i1 %87, label %88, label %163

88:                                               ; preds = %85
  %89 = load i32, i32* %3, align 4
  %90 = sub nsw i32 0, %89
  store i32 %90, i32* %3, align 4
  %91 = load i32, i32* %3, align 4
  %92 = sitofp i32 %91 to double
  %93 = call double @log10(double %92) #3
  %94 = fadd double %93, 1.000000e+00
  %95 = fptosi double %94 to i32
  store i32 %95, i32* %8, align 4
  %96 = load i32, i32* %3, align 4
  %97 = getelementptr inbounds [6 x i32], [6 x i32]* %5, i64 0, i64 0
  store i32 %96, i32* %97, align 16
  store i32 0, i32* %7, align 4
  br label %98

98:                                               ; preds = %129, %88
  %99 = load i32, i32* %7, align 4
  %100 = load i32, i32* %8, align 4
  %101 = icmp slt i32 %99, %100
  br i1 %101, label %102, label %132

102:                                              ; preds = %98
  %103 = load i32, i32* %8, align 4
  %104 = load i32, i32* %7, align 4
  %105 = sub nsw i32 %103, %104
  %106 = sub nsw i32 %105, 1
  %107 = sitofp i32 %106 to double
  %108 = call double @pow(double 1.000000e+01, double %107) #3
  %109 = fptosi double %108 to i32
  store i32 %109, i32* %9, align 4
  %110 = load i32, i32* %7, align 4
  %111 = sext i32 %110 to i64
  %112 = getelementptr inbounds [6 x i32], [6 x i32]* %5, i64 0, i64 %111
  %113 = load i32, i32* %112, align 4
  %114 = load i32, i32* %9, align 4
  %115 = sdiv i32 %113, %114
  %116 = load i32, i32* %7, align 4
  %117 = sext i32 %116 to i64
  %118 = getelementptr inbounds [6 x i32], [6 x i32]* %4, i64 0, i64 %117
  store i32 %115, i32* %118, align 4
  %119 = load i32, i32* %7, align 4
  %120 = sext i32 %119 to i64
  %121 = getelementptr inbounds [6 x i32], [6 x i32]* %5, i64 0, i64 %120
  %122 = load i32, i32* %121, align 4
  %123 = load i32, i32* %9, align 4
  %124 = srem i32 %122, %123
  %125 = load i32, i32* %7, align 4
  %126 = add nsw i32 %125, 1
  %127 = sext i32 %126 to i64
  %128 = getelementptr inbounds [6 x i32], [6 x i32]* %5, i64 0, i64 %127
  store i32 %124, i32* %128, align 4
  br label %129

129:                                              ; preds = %102
  %130 = load i32, i32* %7, align 4
  %131 = add nsw i32 %130, 1
  store i32 %131, i32* %7, align 4
  br label %98

132:                                              ; preds = %98
  store i32 0, i32* %7, align 4
  br label %133

133:                                              ; preds = %157, %132
  %134 = load i32, i32* %7, align 4
  %135 = load i32, i32* %8, align 4
  %136 = icmp slt i32 %134, %135
  br i1 %136, label %137, label %160

137:                                              ; preds = %133
  %138 = load i32, i32* %7, align 4
  %139 = sext i32 %138 to i64
  %140 = getelementptr inbounds [6 x i32], [6 x i32]* %4, i64 0, i64 %139
  %141 = load i32, i32* %140, align 4
  %142 = sitofp i32 %141 to double
  %143 = load i32, i32* %7, align 4
  %144 = sitofp i32 %143 to double
  %145 = call double @pow(double 1.000000e+01, double %144) #3
  %146 = fmul double %142, %145
  %147 = fptosi double %146 to i32
  %148 = load i32, i32* %7, align 4
  %149 = sext i32 %148 to i64
  %150 = getelementptr inbounds [6 x i32], [6 x i32]* %6, i64 0, i64 %149
  store i32 %147, i32* %150, align 4
  %151 = load i32, i32* %10, align 4
  %152 = load i32, i32* %7, align 4
  %153 = sext i32 %152 to i64
  %154 = getelementptr inbounds [6 x i32], [6 x i32]* %6, i64 0, i64 %153
  %155 = load i32, i32* %154, align 4
  %156 = add nsw i32 %151, %155
  store i32 %156, i32* %10, align 4
  br label %157

157:                                              ; preds = %137
  %158 = load i32, i32* %7, align 4
  %159 = add nsw i32 %158, 1
  store i32 %159, i32* %7, align 4
  br label %133

160:                                              ; preds = %133
  %161 = load i32, i32* %10, align 4
  %162 = sub nsw i32 0, %161
  store i32 %162, i32* %2, align 4
  br label %170

163:                                              ; preds = %85
  %164 = load i32, i32* %3, align 4
  %165 = icmp eq i32 %164, 0
  br i1 %165, label %169, label %166

166:                                              ; preds = %163
  %167 = load i32, i32* %3, align 4
  %168 = icmp eq i32 %167, 0
  br i1 %168, label %169, label %170

169:                                              ; preds = %166, %163
  store i32 0, i32* %2, align 4
  br label %170

170:                                              ; preds = %83, %160, %169, %166
  %171 = load i32, i32* %2, align 4
  ret i32 %171
}

; Function Attrs: nounwind
declare dso_local double @log10(double) #1

; Function Attrs: nounwind
declare dso_local double @pow(double, double) #1

; Function Attrs: noinline nounwind uwtable
define dso_local void @main() #0 {
  %1 = alloca i32, align 4
  %2 = alloca [6 x i32], align 16
  store i32 0, i32* %1, align 4
  br label %3

3:                                                ; preds = %11, %0
  %4 = load i32, i32* %1, align 4
  %5 = icmp slt i32 %4, 6
  br i1 %5, label %6, label %14

6:                                                ; preds = %3
  %7 = load i32, i32* %1, align 4
  %8 = sext i32 %7 to i64
  %9 = getelementptr inbounds [6 x i32], [6 x i32]* %2, i64 0, i64 %8
  %10 = call i32 (i8*, ...) @__isoc99_scanf(i8* getelementptr inbounds ([3 x i8], [3 x i8]* @.str, i64 0, i64 0), i32* %9)
  br label %11

11:                                               ; preds = %6
  %12 = load i32, i32* %1, align 4
  %13 = add nsw i32 %12, 1
  store i32 %13, i32* %1, align 4
  br label %3

14:                                               ; preds = %3
  store i32 0, i32* %1, align 4
  br label %15

15:                                               ; preds = %25, %14
  %16 = load i32, i32* %1, align 4
  %17 = icmp slt i32 %16, 6
  br i1 %17, label %18, label %28

18:                                               ; preds = %15
  %19 = load i32, i32* %1, align 4
  %20 = sext i32 %19 to i64
  %21 = getelementptr inbounds [6 x i32], [6 x i32]* %2, i64 0, i64 %20
  %22 = load i32, i32* %21, align 4
  %23 = call i32 @reverse(i32 %22)
  %24 = call i32 (i8*, ...) @printf(i8* getelementptr inbounds ([4 x i8], [4 x i8]* @.str.1, i64 0, i64 0), i32 %23)
  br label %25

25:                                               ; preds = %18
  %26 = load i32, i32* %1, align 4
  %27 = add nsw i32 %26, 1
  store i32 %27, i32* %1, align 4
  br label %15

28:                                               ; preds = %15
  ret void
}

declare dso_local i32 @__isoc99_scanf(i8*, ...) #2

declare dso_local i32 @printf(i8*, ...) #2


!llvm.module.flags = !{!0}
!llvm.ident = !{!1}

!0 = !{i32 1, !"wchar_size", i32 4}
!1 = !{!"clang version 10.0.0-4ubuntu1 "}
